target datalayout = "e-m:e-p270:32:32-p271:32:32-p272:64:64-i64:64-i128:128-f80:128-n8:16:32:64-S128"
target triple = "x86_64-unknown-linux-gnu"

%"class.google::protobuf::internal::UntypedMapBase" = type { i32, i32, i32, i32, ptr, %"class.google::protobuf::internal::MapAllocator.2" }
%"class.google::protobuf::internal::MapAllocator.2" = type { ptr }
%"class.absl::lts_20230802::container_internal::btree_container" = type { %"class.absl::lts_20230802::container_internal::btree" }
%"class.absl::lts_20230802::container_internal::btree" = type { ptr, %"class.absl::lts_20230802::container_internal::CompressedTuple", i64 }
%"class.absl::lts_20230802::container_internal::CompressedTuple" = type { %"struct.absl::lts_20230802::container_internal::internal_compressed_tuple::CompressedTupleImpl" }
%"struct.absl::lts_20230802::container_internal::internal_compressed_tuple::CompressedTupleImpl" = type { %"struct.absl::lts_20230802::container_internal::internal_compressed_tuple::Storage.0", %"struct.absl::lts_20230802::container_internal::internal_compressed_tuple::Storage.1" }
%"struct.absl::lts_20230802::container_internal::internal_compressed_tuple::Storage.0" = type { %"class.google::protobuf::internal::MapAllocator" }
%"class.google::protobuf::internal::MapAllocator" = type { ptr }
%"struct.absl::lts_20230802::container_internal::internal_compressed_tuple::Storage.1" = type { ptr }

; Function Attrs: mustprogress nounwind uwtable
define linkonce_odr hidden noundef i64 @_ZNK4absl12lts_2023080218container_internal5btreeINS1_10map_paramsIN6google8protobuf8internal10VariantKeyEPNS6_8NodeBaseESt4lessIS7_ENS6_12MapAllocatorISt4pairIKS7_S9_EEELi256ELb0EEEE4sizeEv(ptr noundef nonnull align 8 dereferenceable(32) %this) #5 comdat align 2 {
entry:
  %this.addr = alloca ptr, align 8
  store ptr %this, ptr %this.addr, align 8
  %this1 = load ptr, ptr %this.addr, align 8
  %size_ = getelementptr inbounds %"class.absl::lts_20230802::container_internal::btree", ptr %this1, i32 0, i32 2
  %0 = load i64, ptr %size_, align 8
  ret i64 %0
}

; Function Attrs: mustprogress nounwind uwtable
define linkonce_odr hidden noundef zeroext i1 @_ZN6google8protobuf8internal16TableEntryIsTreeENS1_13TableEntryPtrE(i64 noundef %entry1) #5 comdat {
entry:
  %entry.addr = alloca i64, align 8
  store i64 %entry1, ptr %entry.addr, align 8
  %0 = load i64, ptr %entry.addr, align 8
  %and = and i64 %0, 1
  %cmp = icmp eq i64 %and, 1
  ret i1 %cmp
}

; Function Attrs: mustprogress uwtable
define linkonce_odr hidden noundef i64 @_ZNK4absl12lts_2023080218container_internal15btree_containerINS1_5btreeINS1_10map_paramsIN6google8protobuf8internal10VariantKeyEPNS7_8NodeBaseESt4lessIS8_ENS7_12MapAllocatorISt4pairIKS8_SA_EEELi256ELb0EEEEEE4sizeEv(ptr noundef nonnull align 8 dereferenceable(32) %this) #4 comdat align 2 {
entry:
  %this.addr = alloca ptr, align 8
  store ptr %this, ptr %this.addr, align 8
  %this1 = load ptr, ptr %this.addr, align 8
  %tree_ = getelementptr inbounds %"class.absl::lts_20230802::container_internal::btree_container", ptr %this1, i32 0, i32 0
  %call = call noundef i64 @_ZNK4absl12lts_2023080218container_internal5btreeINS1_10map_paramsIN6google8protobuf8internal10VariantKeyEPNS6_8NodeBaseESt4lessIS7_ENS6_12MapAllocatorISt4pairIKS7_S9_EEELi256ELb0EEEE4sizeEv(ptr noundef nonnull align 8 dereferenceable(32) %tree_)
  ret i64 %call
}

; Function Attrs: mustprogress nounwind uwtable
define linkonce_odr hidden noundef ptr @_ZN6google8protobuf8internal16TableEntryToTreeENS1_13TableEntryPtrE(i64 noundef %entry1) #5 comdat {
entry:
  %entry.addr = alloca i64, align 8
  store i64 %entry1, ptr %entry.addr, align 8
  %0 = load i64, ptr %entry.addr, align 8
  %sub = sub i64 %0, 1
  %1 = inttoptr i64 %sub to ptr
  ret ptr %1
}

; Function Attrs: mustprogress nounwind uwtable
define linkonce_odr hidden noundef zeroext i1 @_ZNK6google8protobuf8internal14UntypedMapBase16TableEntryIsTreeEj(ptr noundef nonnull align 8 dereferenceable(32) %this, i32 noundef %b) #5 comdat align 2 {
entry:
  %this.addr = alloca ptr, align 8
  %b.addr = alloca i32, align 4
  store ptr %this, ptr %this.addr, align 8
  store i32 %b, ptr %b.addr, align 4
  %this1 = load ptr, ptr %this.addr, align 8
  %table_ = getelementptr inbounds %"class.google::protobuf::internal::UntypedMapBase", ptr %this1, i32 0, i32 4
  %0 = load ptr, ptr %table_, align 8
  %1 = load i32, ptr %b.addr, align 4
  %idxprom = zext i32 %1 to i64
  %arrayidx = getelementptr inbounds i64, ptr %0, i64 %idxprom
  %2 = load i64, ptr %arrayidx, align 8
  %call = call noundef zeroext i1 @_ZN6google8protobuf8internal16TableEntryIsTreeENS1_13TableEntryPtrE(i64 noundef %2)
  ret i1 %call
}

; Function Attrs: mustprogress uwtable
define noundef i64 @_ZNK6google8protobuf8internal14UntypedMapBase16SpaceUsedInTableEm(ptr noundef nonnull align 8 dereferenceable(32) %this, i64 noundef %sizeof_node) #4 align 2 {
entry:
  %this.addr = alloca ptr, align 8
  %sizeof_node.addr = alloca i64, align 8
  %size = alloca i64, align 8
  %b = alloca i32, align 4
  store ptr %this, ptr %this.addr, align 8
  store i64 %sizeof_node, ptr %sizeof_node.addr, align 8
  %this1 = load ptr, ptr %this.addr, align 8
  store i64 0, ptr %size, align 8
  %num_buckets_ = getelementptr inbounds %"class.google::protobuf::internal::UntypedMapBase", ptr %this1, i32 0, i32 1
  %0 = load i32, ptr %num_buckets_, align 4
  %conv = zext i32 %0 to i64
  %mul = mul i64 8, %conv
  %1 = load i64, ptr %size, align 8
  %add = add i64 %1, %mul
  store i64 %add, ptr %size, align 8
  %2 = load i64, ptr %sizeof_node.addr, align 8
  %num_elements_ = getelementptr inbounds %"class.google::protobuf::internal::UntypedMapBase", ptr %this1, i32 0, i32 0
  %3 = load i32, ptr %num_elements_, align 8
  %conv2 = zext i32 %3 to i64
  %mul3 = mul i64 %2, %conv2
  %4 = load i64, ptr %size, align 8
  %add4 = add i64 %4, %mul3
  store i64 %add4, ptr %size, align 8
  store i32 0, ptr %b, align 4
  br label %for.cond

for.cond:                                         ; preds = %for.inc, %entry
  %5 = load i32, ptr %b, align 4
  %num_buckets_5 = getelementptr inbounds %"class.google::protobuf::internal::UntypedMapBase", ptr %this1, i32 0, i32 1
  %6 = load i32, ptr %num_buckets_5, align 4
  %cmp = icmp ult i32 %5, %6
  br i1 %cmp, label %for.body, label %for.end

for.body:                                         ; preds = %for.cond
  %7 = load i32, ptr %b, align 4
  %call = call noundef zeroext i1 @_ZNK6google8protobuf8internal14UntypedMapBase16TableEntryIsTreeEj(ptr noundef nonnull align 8 dereferenceable(32) %this1, i32 noundef %7)
  br i1 %call, label %if.then, label %if.end

if.then:                                          ; preds = %for.body
  %8 = load i64, ptr %size, align 8
  %add6 = add i64 %8, 32
  store i64 %add6, ptr %size, align 8
  %table_ = getelementptr inbounds %"class.google::protobuf::internal::UntypedMapBase", ptr %this1, i32 0, i32 4
  %9 = load ptr, ptr %table_, align 8
  %10 = load i32, ptr %b, align 4
  %idxprom = zext i32 %10 to i64
  %arrayidx = getelementptr inbounds i64, ptr %9, i64 %idxprom
  %11 = load i64, ptr %arrayidx, align 8
  %call7 = call noundef ptr @_ZN6google8protobuf8internal16TableEntryToTreeENS1_13TableEntryPtrE(i64 noundef %11)
  %call8 = call noundef i64 @_ZNK4absl12lts_2023080218container_internal15btree_containerINS1_5btreeINS1_10map_paramsIN6google8protobuf8internal10VariantKeyEPNS7_8NodeBaseESt4lessIS8_ENS7_12MapAllocatorISt4pairIKS8_SA_EEELi256ELb0EEEEEE4sizeEv(ptr noundef nonnull align 8 dereferenceable(32) %call7)
  %mul9 = mul i64 24, %call8
  %12 = load i64, ptr %size, align 8
  %add10 = add i64 %12, %mul9
  store i64 %add10, ptr %size, align 8
  br label %if.end

if.end:                                           ; preds = %if.then, %for.body
  br label %for.inc

for.inc:                                          ; preds = %if.end
  %13 = load i32, ptr %b, align 4
  %inc = add i32 %13, 1
  store i32 %inc, ptr %b, align 4
  br label %for.cond, !llvm.loop !24

for.end:                                          ; preds = %for.cond
  %14 = load i64, ptr %size, align 8
  ret i64 %14
}