; Function Attrs: mustprogress nofree norecurse nosync nounwind willreturn memory(read, inaccessiblemem: none) uwtable
define noundef i64 @_ZNK6google8protobuf8internal14UntypedMapBase16SpaceUsedInTableEm(ptr noundef nonnull readonly align 8 captures(none) dereferenceable(32) %this, i64 noundef %sizeof_node) local_unnamed_addr #7 align 2 {
entry:
  %num_buckets_ = getelementptr inbounds nuw i8, ptr %this, i64 4
  %0 = load i32, ptr %num_buckets_, align 4
  %conv = zext i32 %0 to i64
  %mul = shl nuw nsw i64 %conv, 3
  %1 = load i32, ptr %this, align 8
  %conv2 = zext i32 %1 to i64
  %mul3 = mul i64 %sizeof_node, %conv2
  %add4 = add i64 %mul3, %mul
  %cmp8.not = icmp eq i32 %0, 0
  br i1 %cmp8.not, label %for.end, label %for.body.lr.ph

for.body.lr.ph:                                   ; preds = %entry
  %table_.i = getelementptr inbounds nuw i8, ptr %this, i64 16
  %2 = load ptr, ptr %table_.i, align 8
  br label %for.body

for.body:                                         ; preds = %for.body.lr.ph, %for.inc
  %indvars.iv = phi i64 [ 0, %for.body.lr.ph ], [ %indvars.iv.next, %for.inc ]
  %size.09 = phi i64 [ %add4, %for.body.lr.ph ], [ %size.1, %for.inc ]
  %arrayidx.i = getelementptr inbounds nuw i64, ptr %2, i64 %indvars.iv
  %3 = load i64, ptr %arrayidx.i, align 8
  %and.i.i = and i64 %3, 1
  %cmp.i.i.not = icmp eq i64 %and.i.i, 0
  br i1 %cmp.i.i.not, label %for.inc, label %if.then

if.then:                                          ; preds = %for.body
  %add6 = add i64 %size.09, 32
  %sub.i = add nsw i64 %3, -1
  %4 = inttoptr i64 %sub.i to ptr
  %size_.i.i = getelementptr inbounds nuw i8, ptr %4, i64 24
  %5 = load i64, ptr %size_.i.i, align 8
  %mul9 = mul i64 %5, 24
  %add10 = add i64 %add6, %mul9
  br label %for.inc

for.inc:                                          ; preds = %for.body, %if.then
  %size.1 = phi i64 [ %add10, %if.then ], [ %size.09, %for.body ]
  %indvars.iv.next = add nuw nsw i64 %indvars.iv, 1
  %exitcond.not = icmp eq i64 %indvars.iv.next, %conv
  br i1 %exitcond.not, label %for.end, label %for.body, !llvm.loop !51

for.end:                                          ; preds = %for.inc, %entry
  %size.0.lcssa = phi i64 [ %add4, %entry ], [ %size.1, %for.inc ]
  ret i64 %size.0.lcssa
}